ccopy_reg
_reconstructor
p0
(cgoogle.oauth2.credentials
Credentials
p1
c__builtin__
object
p2
Ntp3
Rp4
(dp5
S'_quota_project_id'
p6
NsS'_token_uri'
p7
Vhttps://oauth2.googleapis.com/token
p8
sS'_client_secret'
p9
VwL-8f5HVB2WYId7bCIcMZJi7
p10
sS'_default_scopes'
p11
NsS'_id_token'
p12
NsS'token'
p13
Vya29.A0AfH6SMAKPegitEzcBvfuVOtCkMEy-Fx4QTDDcc9RSwz7mORcBvAhKWq5eAKRknoyTpOVrKPgE8nc9Utiei6VqmgNUC8obuWMs3F502OE7SiWV9xQ09U1bd-17I3uGmXQRdhDWHuOF2wS_cb_Of8w379J72jTSA
p14
sS'_refresh_token'
p15
V1//01pm8Btladyx6CgYIARAAGAESNwF-L9IrepbOWXPge7CSEoKceDT9cX3Ok1UFY5xpbWFKI-HijzsS1oNaHsd82Y7g5OWu8zpy7l0
p16
sS'_scopes'
p17
(lp18
S'https://www.googleapis.com/auth/spreadsheets.readonly'
p19
asS'_client_id'
p20
V633225475437-r89ht01rnfjfolvipss1g7dgee8cn345.apps.googleusercontent.com
p21
sS'expiry'
p22
cdatetime
datetime
p23
(S'\x07\xe5\x03\x04\x10\x0f\x06\t\x16\x05'
p24
tp25
Rp26
sb.